target datalayout = "e-m:e-p270:32:32-p271:32:32-p272:64:64-i64:64-i128:128-f80:128-n8:16:32:64-S128"
target triple = "x86_64-pc-linux-gnu"

%struct.cmsysProcess_s = type { ptr, i32, [3 x i32], [3 x i32], i32, [1024 x i8], ptr, i32, double, ptr, i32, i32, i32, i32, i32, %struct.kwsysProcessTime_s, %struct.kwsysProcessTime_s, i32, i32, %struct.fd_set, i32, i32, i32, [1025 x i8], ptr, ptr, ptr, ptr, ptr, i32, i32, i32, [2 x i32], [2 x i32], [2 x i32], i32, ptr }
%struct.kwsysProcessTime_s = type { i64, i64 }
%struct.fd_set = type { [16 x i64] }

; Function Attrs: nounwind uwtable
define dso_local void @cmsysProcess_SetTimeout(ptr noundef %0, double noundef %1) #0 {
  %3 = alloca ptr, align 8
  %4 = alloca double, align 8
  store ptr %0, ptr %3, align 8, !tbaa !4
  store double %1, ptr %4, align 8, !tbaa !53
  %5 = load ptr, ptr %3, align 8, !tbaa !4
  %6 = icmp ne ptr %5, null
  br i1 %6, label %8, label %7

7:                                                ; preds = %2
  br label %23

8:                                                ; preds = %2
  %9 = load double, ptr %4, align 8, !tbaa !53
  %10 = load ptr, ptr %3, align 8, !tbaa !4
  %11 = getelementptr inbounds nuw %struct.cmsysProcess_s, ptr %10, i32 0, i32 8
  store double %9, ptr %11, align 8, !tbaa !54
  %12 = load ptr, ptr %3, align 8, !tbaa !4
  %13 = getelementptr inbounds nuw %struct.cmsysProcess_s, ptr %12, i32 0, i32 8
  %14 = load double, ptr %13, align 8, !tbaa !54
  %15 = fcmp olt double %14, 0.000000e+00
  br i1 %15, label %16, label %19

16:                                               ; preds = %8
  %17 = load ptr, ptr %3, align 8, !tbaa !4
  %18 = getelementptr inbounds nuw %struct.cmsysProcess_s, ptr %17, i32 0, i32 8
  store double 0.000000e+00, ptr %18, align 8, !tbaa !54
  br label %19

19:                                               ; preds = %16, %8
  %20 = load ptr, ptr %3, align 8, !tbaa !4
  %21 = getelementptr inbounds nuw %struct.cmsysProcess_s, ptr %20, i32 0, i32 16
  %22 = getelementptr inbounds nuw %struct.kwsysProcessTime_s, ptr %21, i32 0, i32 0
  store i64 -1, ptr %22, align 8, !tbaa !55
  br label %23

23:                                               ; preds = %19, %7
  ret void
}