; Function Attrs: mustprogress nofree norecurse nosync nounwind willreturn memory(argmem: write) uwtable
define dso_local void @cmsysProcess_SetTimeout(ptr noundef writeonly %0, double noundef %1) local_unnamed_addr #9 {
  %.not = icmp eq ptr %0, null
  br i1 %.not, label %7, label %3

3:                                                ; preds = %2
  %4 = getelementptr inbounds nuw i8, ptr %0, i64 1080
  %5 = fcmp olt double %1, 0.000000e+00
  %storemerge = select i1 %5, double 0.000000e+00, double %1
  store double %storemerge, ptr %4, align 8, !tbaa !49
  %6 = getelementptr inbounds nuw i8, ptr %0, i64 1136
  store i64 -1, ptr %6, align 8, !tbaa !50
  br label %7

7:                                                ; preds = %2, %3
  ret void
}